target datalayout = "e-m:e-p270:32:32-p271:32:32-p272:64:64-i64:64-i128:128-f80:128-n8:16:32:64-S128"
target triple = "x86_64-pc-linux-gnu"

%struct.H5G_loc_t = type { ptr, ptr }
%struct.H5O_loc_t = type { ptr, i64, i8 }
%struct.H5VL_group_specific_args_t = type { i32, %union.anon.3 }
%union.anon.3 = type { %struct.H5VL_group_spec_mount_args_t }
%struct.H5VL_group_spec_mount_args_t = type { ptr, ptr, i64 }
%struct.anon.4 = type { ptr }
%struct.H5G_t = type { ptr, %struct.H5O_loc_t, %struct.H5G_name_t }
%struct.H5G_name_t = type { ptr, ptr, i32 }
%struct.anon.5 = type { i64 }
%struct.anon.6 = type { i64 }

@.str = private unnamed_addr constant [110 x i8] c"generated/home/dtcxzyw/WorkSpace/Projects/compilers/llvm-opt-benchmark/bench/hdf5/hdf5/src/H5VLnative_group.c\00", align 1
@H5E_ARGS_g = external global i64, align 8
@H5E_BADTYPE_g = external global i64, align 8
@H5E_SYM_g = external global i64, align 8
@H5E_VOL_g = external global i64, align 8
@H5E_UNSUPPORTED_g = external global i64, align 8
@__func__.H5VL__native_group_specific = private unnamed_addr constant [28 x i8] c"H5VL__native_group_specific\00", align 1
@.str.10 = private unnamed_addr constant [19 x i8] c"not a group object\00", align 1
@H5E_FILE_g = external global i64, align 8
@H5E_MOUNT_g = external global i64, align 8
@.str.11 = private unnamed_addr constant [21 x i8] c"unable to mount file\00", align 1
@H5E_UNMOUNT_g = external global i64, align 8
@.str.12 = private unnamed_addr constant [23 x i8] c"unable to unmount file\00", align 1
@.str.13 = private unnamed_addr constant [38 x i8] c"H5Oflush isn't supported for parallel\00", align 1
@H5E_CANTFLUSH_g = external global i64, align 8
@.str.14 = private unnamed_addr constant [22 x i8] c"unable to flush group\00", align 1
@H5E_CANTLOAD_g = external global i64, align 8
@.str.15 = private unnamed_addr constant [24 x i8] c"unable to refresh group\00", align 1
@.str.16 = private unnamed_addr constant [27 x i8] c"invalid specific operation\00", align 1

; Function Attrs: nounwind uwtable
define i32 @H5VL__native_group_specific(ptr noundef %0, ptr noundef %1, i64 noundef %2, ptr noundef %3) #0 {
  %5 = alloca ptr, align 8
  %6 = alloca ptr, align 8
  %7 = alloca i64, align 8
  %8 = alloca ptr, align 8
  %9 = alloca ptr, align 8
  %10 = alloca i32, align 4
  %11 = alloca i8, align 1
  %12 = alloca %struct.H5G_loc_t, align 8
  %13 = alloca %struct.H5G_loc_t, align 8
  store ptr %0, ptr %5, align 8
  store ptr %1, ptr %6, align 8
  store i64 %2, ptr %7, align 8
  store ptr %3, ptr %8, align 8
  %14 = load ptr, ptr %5, align 8
  store ptr %14, ptr %9, align 8
  store i32 0, ptr %10, align 4
  store i8 0, ptr %11, align 1
  %15 = load ptr, ptr %6, align 8
  %16 = getelementptr inbounds %struct.H5VL_group_specific_args_t, ptr %15, i32 0, i32 0
  %17 = load i32, ptr %16, align 8
  switch i32 %17, label %181 [
    i32 0, label %18
    i32 1, label %68
    i32 2, label %110
    i32 3, label %156
  ]

18:                                               ; preds = %4
  %19 = load ptr, ptr %9, align 8
  %20 = call i32 @H5G_loc_real(ptr noundef %19, i32 noundef 2, ptr noundef %12)
  %21 = icmp slt i32 %20, 0
  br i1 %21, label %22, label %37

22:                                               ; preds = %18
  br label %23

23:                                               ; preds = %22
  br label %24

24:                                               ; preds = %23
  br label %25

25:                                               ; preds = %24
  %26 = load i64, ptr @H5E_ARGS_g, align 8
  %27 = load i64, ptr @H5E_BADTYPE_g, align 8
  %28 = call i32 (ptr, ptr, i32, i64, i64, ptr, ...) @H5E_printf_stack(ptr noundef @.str, ptr noundef @__func__.H5VL__native_group_specific, i32 noundef 258, i64 noundef %26, i64 noundef %27, ptr noundef @.str.10)
  br label %29

29:                                               ; preds = %25
  store i8 1, ptr %11, align 1
  %30 = load i8, ptr %11, align 1
  %31 = trunc i8 %30 to i1
  %32 = zext i1 %31 to i8
  store i8 %32, ptr %11, align 1
  br label %33

33:                                               ; preds = %29
  br label %34

34:                                               ; preds = %33
  store i32 -1, ptr %10, align 4
  br label %197

35:                                               ; No predecessors!
  br label %36

36:                                               ; preds = %35
  br label %37

37:                                               ; preds = %36, %18
  %38 = load ptr, ptr %6, align 8
  %39 = getelementptr inbounds %struct.H5VL_group_specific_args_t, ptr %38, i32 0, i32 1
  %40 = getelementptr inbounds %struct.H5VL_group_spec_mount_args_t, ptr %39, i32 0, i32 0
  %41 = load ptr, ptr %40, align 8
  %42 = load ptr, ptr %6, align 8
  %43 = getelementptr inbounds %struct.H5VL_group_specific_args_t, ptr %42, i32 0, i32 1
  %44 = getelementptr inbounds %struct.H5VL_group_spec_mount_args_t, ptr %43, i32 0, i32 1
  %45 = load ptr, ptr %44, align 8
  %46 = load ptr, ptr %6, align 8
  %47 = getelementptr inbounds %struct.H5VL_group_specific_args_t, ptr %46, i32 0, i32 1
  %48 = getelementptr inbounds %struct.H5VL_group_spec_mount_args_t, ptr %47, i32 0, i32 2
  %49 = load i64, ptr %48, align 8
  %50 = call i32 @H5F_mount(ptr noundef %12, ptr noundef %41, ptr noundef %45, i64 noundef %49)
  %51 = icmp slt i32 %50, 0
  br i1 %51, label %52, label %67

52:                                               ; preds = %37
  br label %53

53:                                               ; preds = %52
  br label %54

54:                                               ; preds = %53
  br label %55

55:                                               ; preds = %54
  %56 = load i64, ptr @H5E_FILE_g, align 8
  %57 = load i64, ptr @H5E_MOUNT_g, align 8
  %58 = call i32 (ptr, ptr, i32, i64, i64, ptr, ...) @H5E_printf_stack(ptr noundef @.str, ptr noundef @__func__.H5VL__native_group_specific, i32 noundef 262, i64 noundef %56, i64 noundef %57, ptr noundef @.str.11)
  br label %59

59:                                               ; preds = %55
  store i8 1, ptr %11, align 1
  %60 = load i8, ptr %11, align 1
  %61 = trunc i8 %60 to i1
  %62 = zext i1 %61 to i8
  store i8 %62, ptr %11, align 1
  br label %63

63:                                               ; preds = %59
  br label %64

64:                                               ; preds = %63
  store i32 -1, ptr %10, align 4
  br label %197

65:                                               ; No predecessors!
  br label %66

66:                                               ; preds = %65
  br label %67

67:                                               ; preds = %66, %37
  br label %196

68:                                               ; preds = %4
  %69 = load ptr, ptr %9, align 8
  %70 = call i32 @H5G_loc_real(ptr noundef %69, i32 noundef 2, ptr noundef %13)
  %71 = icmp slt i32 %70, 0
  br i1 %71, label %72, label %87

72:                                               ; preds = %68
  br label %73

73:                                               ; preds = %72
  br label %74

74:                                               ; preds = %73
  br label %75

75:                                               ; preds = %74
  %76 = load i64, ptr @H5E_ARGS_g, align 8
  %77 = load i64, ptr @H5E_BADTYPE_g, align 8
  %78 = call i32 (ptr, ptr, i32, i64, i64, ptr, ...) @H5E_printf_stack(ptr noundef @.str, ptr noundef @__func__.H5VL__native_group_specific, i32 noundef 272, i64 noundef %76, i64 noundef %77, ptr noundef @.str.10)
  br label %79

79:                                               ; preds = %75
  store i8 1, ptr %11, align 1
  %80 = load i8, ptr %11, align 1
  %81 = trunc i8 %80 to i1
  %82 = zext i1 %81 to i8
  store i8 %82, ptr %11, align 1
  br label %83

83:                                               ; preds = %79
  br label %84

84:                                               ; preds = %83
  store i32 -1, ptr %10, align 4
  br label %197

85:                                               ; No predecessors!
  br label %86

86:                                               ; preds = %85
  br label %87

87:                                               ; preds = %86, %68
  %88 = load ptr, ptr %6, align 8
  %89 = getelementptr inbounds %struct.H5VL_group_specific_args_t, ptr %88, i32 0, i32 1
  %90 = getelementptr inbounds %struct.anon.4, ptr %89, i32 0, i32 0
  %91 = load ptr, ptr %90, align 8
  %92 = call i32 @H5F_unmount(ptr noundef %13, ptr noundef %91)
  %93 = icmp slt i32 %92, 0
  br i1 %93, label %94, label %109

94:                                               ; preds = %87
  br label %95

95:                                               ; preds = %94
  br label %96

96:                                               ; preds = %95
  br label %97

97:                                               ; preds = %96
  %98 = load i64, ptr @H5E_FILE_g, align 8
  %99 = load i64, ptr @H5E_UNMOUNT_g, align 8
  %100 = call i32 (ptr, ptr, i32, i64, i64, ptr, ...) @H5E_printf_stack(ptr noundef @.str, ptr noundef @__func__.H5VL__native_group_specific, i32 noundef 275, i64 noundef %98, i64 noundef %99, ptr noundef @.str.12)
  br label %101

101:                                              ; preds = %97
  store i8 1, ptr %11, align 1
  %102 = load i8, ptr %11, align 1
  %103 = trunc i8 %102 to i1
  %104 = zext i1 %103 to i8
  store i8 %104, ptr %11, align 1
  br label %105

105:                                              ; preds = %101
  br label %106

106:                                              ; preds = %105
  store i32 -1, ptr %10, align 4
  br label %197

107:                                              ; No predecessors!
  br label %108

108:                                              ; preds = %107
  br label %109

109:                                              ; preds = %108, %87
  br label %196

110:                                              ; preds = %4
  %111 = load ptr, ptr %9, align 8
  %112 = getelementptr inbounds %struct.H5G_t, ptr %111, i32 0, i32 1
  %113 = getelementptr inbounds %struct.H5O_loc_t, ptr %112, i32 0, i32 0
  %114 = load ptr, ptr %113, align 8
  %115 = call zeroext i1 @H5F_has_feature(ptr noundef %114, i32 noundef 256)
  br i1 %115, label %116, label %131

116:                                              ; preds = %110
  br label %117

117:                                              ; preds = %116
  br label %118

118:                                              ; preds = %117
  br label %119

119:                                              ; preds = %118
  %120 = load i64, ptr @H5E_SYM_g, align 8
  %121 = load i64, ptr @H5E_UNSUPPORTED_g, align 8
  %122 = call i32 (ptr, ptr, i32, i64, i64, ptr, ...) @H5E_printf_stack(ptr noundef @.str, ptr noundef @__func__.H5VL__native_group_specific, i32 noundef 285, i64 noundef %120, i64 noundef %121, ptr noundef @.str.13)
  br label %123

123:                                              ; preds = %119
  store i8 1, ptr %11, align 1
  %124 = load i8, ptr %11, align 1
  %125 = trunc i8 %124 to i1
  %126 = zext i1 %125 to i8
  store i8 %126, ptr %11, align 1
  br label %127

127:                                              ; preds = %123
  br label %128

128:                                              ; preds = %127
  store i32 -1, ptr %10, align 4
  br label %197

129:                                              ; No predecessors!
  br label %130

130:                                              ; preds = %129
  br label %131

131:                                              ; preds = %130, %110
  %132 = load ptr, ptr %9, align 8
  %133 = getelementptr inbounds %struct.H5G_t, ptr %132, i32 0, i32 1
  %134 = load ptr, ptr %6, align 8
  %135 = getelementptr inbounds %struct.H5VL_group_specific_args_t, ptr %134, i32 0, i32 1
  %136 = getelementptr inbounds %struct.anon.5, ptr %135, i32 0, i32 0
  %137 = load i64, ptr %136, align 8
  %138 = call i32 @H5O_flush_common(ptr noundef %133, i64 noundef %137)
  %139 = icmp slt i32 %138, 0
  br i1 %139, label %140, label %155

140:                                              ; preds = %131
  br label %141

141:                                              ; preds = %140
  br label %142

142:                                              ; preds = %141
  br label %143

143:                                              ; preds = %142
  %144 = load i64, ptr @H5E_SYM_g, align 8
  %145 = load i64, ptr @H5E_CANTFLUSH_g, align 8
  %146 = call i32 (ptr, ptr, i32, i64, i64, ptr, ...) @H5E_printf_stack(ptr noundef @.str, ptr noundef @__func__.H5VL__native_group_specific, i32 noundef 288, i64 noundef %144, i64 noundef %145, ptr noundef @.str.14)
  br label %147

147:                                              ; preds = %143
  store i8 1, ptr %11, align 1
  %148 = load i8, ptr %11, align 1
  %149 = trunc i8 %148 to i1
  %150 = zext i1 %149 to i8
  store i8 %150, ptr %11, align 1
  br label %151

151:                                              ; preds = %147
  br label %152

152:                                              ; preds = %151
  store i32 -1, ptr %10, align 4
  br label %197

153:                                              ; No predecessors!
  br label %154

154:                                              ; preds = %153
  br label %155

155:                                              ; preds = %154, %131
  br label %196

156:                                              ; preds = %4
  %157 = load ptr, ptr %9, align 8
  %158 = getelementptr inbounds %struct.H5G_t, ptr %157, i32 0, i32 1
  %159 = load ptr, ptr %6, align 8
  %160 = getelementptr inbounds %struct.H5VL_group_specific_args_t, ptr %159, i32 0, i32 1
  %161 = getelementptr inbounds %struct.anon.6, ptr %160, i32 0, i32 0
  %162 = load i64, ptr %161, align 8
  %163 = call i32 @H5O_refresh_metadata(ptr noundef %158, i64 noundef %162)
  %164 = icmp slt i32 %163, 0
  br i1 %164, label %165, label %180

165:                                              ; preds = %156
  br label %166

166:                                              ; preds = %165
  br label %167

167:                                              ; preds = %166
  br label %168

168:                                              ; preds = %167
  %169 = load i64, ptr @H5E_SYM_g, align 8
  %170 = load i64, ptr @H5E_CANTLOAD_g, align 8
  %171 = call i32 (ptr, ptr, i32, i64, i64, ptr, ...) @H5E_printf_stack(ptr noundef @.str, ptr noundef @__func__.H5VL__native_group_specific, i32 noundef 296, i64 noundef %169, i64 noundef %170, ptr noundef @.str.15)
  br label %172

172:                                              ; preds = %168
  store i8 1, ptr %11, align 1
  %173 = load i8, ptr %11, align 1
  %174 = trunc i8 %173 to i1
  %175 = zext i1 %174 to i8
  store i8 %175, ptr %11, align 1
  br label %176

176:                                              ; preds = %172
  br label %177

177:                                              ; preds = %176
  store i32 -1, ptr %10, align 4
  br label %197

178:                                              ; No predecessors!
  br label %179

179:                                              ; preds = %178
  br label %180

180:                                              ; preds = %179, %156
  br label %196

181:                                              ; preds = %4
  br label %182

182:                                              ; preds = %181
  br label %183

183:                                              ; preds = %182
  br label %184

184:                                              ; preds = %183
  %185 = load i64, ptr @H5E_VOL_g, align 8
  %186 = load i64, ptr @H5E_UNSUPPORTED_g, align 8
  %187 = call i32 (ptr, ptr, i32, i64, i64, ptr, ...) @H5E_printf_stack(ptr noundef @.str, ptr noundef @__func__.H5VL__native_group_specific, i32 noundef 302, i64 noundef %185, i64 noundef %186, ptr noundef @.str.16)
  br label %188

188:                                              ; preds = %184
  store i8 1, ptr %11, align 1
  %189 = load i8, ptr %11, align 1
  %190 = trunc i8 %189 to i1
  %191 = zext i1 %190 to i8
  store i8 %191, ptr %11, align 1
  br label %192

192:                                              ; preds = %188
  br label %193

193:                                              ; preds = %192
  store i32 -1, ptr %10, align 4
  br label %197

194:                                              ; No predecessors!
  br label %195

195:                                              ; preds = %194
  br label %196

196:                                              ; preds = %195, %180, %155, %109, %67
  br label %197

197:                                              ; preds = %196, %193, %177, %152, %128, %106, %84, %64, %34
  %198 = load i32, ptr %10, align 4
  ret i32 %198
}