; Function Attrs: nounwind uwtable
define range(i32 -1, 1) i32 @H5VL__native_group_specific(ptr noundef %0, ptr nocapture noundef readonly %1, i64 noundef %2, ptr nocapture noundef readnone %3) local_unnamed_addr #0 {
  %5 = alloca %struct.H5G_loc_t, align 8
  %6 = alloca %struct.H5G_loc_t, align 8
  %7 = load i32, ptr %1, align 8
  switch i32 %7, label %71 [
    i32 0, label %8
    i32 1, label %28
    i32 2, label %44
    i32 3, label %61
  ]

8:                                                ; preds = %4
  %9 = call i32 @H5G_loc_real(ptr noundef %0, i32 noundef 2, ptr noundef nonnull %5) #3
  %10 = icmp slt i32 %9, 0
  br i1 %10, label %11, label %15

11:                                               ; preds = %8
  %12 = load i64, ptr @H5E_ARGS_g, align 8
  %13 = load i64, ptr @H5E_BADTYPE_g, align 8
  %14 = call i32 (ptr, ptr, i32, i64, i64, ptr, ...) @H5E_printf_stack(ptr noundef nonnull @.str, ptr noundef nonnull @__func__.H5VL__native_group_specific, i32 noundef 258, i64 noundef %12, i64 noundef %13, ptr noundef nonnull @.str.10) #3
  br label %75

15:                                               ; preds = %8
  %16 = getelementptr inbounds i8, ptr %1, i64 8
  %17 = load ptr, ptr %16, align 8
  %18 = getelementptr inbounds i8, ptr %1, i64 16
  %19 = load ptr, ptr %18, align 8
  %20 = getelementptr inbounds i8, ptr %1, i64 24
  %21 = load i64, ptr %20, align 8
  %22 = call i32 @H5F_mount(ptr noundef nonnull %5, ptr noundef %17, ptr noundef %19, i64 noundef %21) #3
  %23 = icmp slt i32 %22, 0
  br i1 %23, label %24, label %75

24:                                               ; preds = %15
  %25 = load i64, ptr @H5E_FILE_g, align 8
  %26 = load i64, ptr @H5E_MOUNT_g, align 8
  %27 = call i32 (ptr, ptr, i32, i64, i64, ptr, ...) @H5E_printf_stack(ptr noundef nonnull @.str, ptr noundef nonnull @__func__.H5VL__native_group_specific, i32 noundef 262, i64 noundef %25, i64 noundef %26, ptr noundef nonnull @.str.11) #3
  br label %75

28:                                               ; preds = %4
  %29 = call i32 @H5G_loc_real(ptr noundef %0, i32 noundef 2, ptr noundef nonnull %6) #3
  %30 = icmp slt i32 %29, 0
  br i1 %30, label %31, label %35

31:                                               ; preds = %28
  %32 = load i64, ptr @H5E_ARGS_g, align 8
  %33 = load i64, ptr @H5E_BADTYPE_g, align 8
  %34 = call i32 (ptr, ptr, i32, i64, i64, ptr, ...) @H5E_printf_stack(ptr noundef nonnull @.str, ptr noundef nonnull @__func__.H5VL__native_group_specific, i32 noundef 272, i64 noundef %32, i64 noundef %33, ptr noundef nonnull @.str.10) #3
  br label %75

35:                                               ; preds = %28
  %36 = getelementptr inbounds i8, ptr %1, i64 8
  %37 = load ptr, ptr %36, align 8
  %38 = call i32 @H5F_unmount(ptr noundef nonnull %6, ptr noundef %37) #3
  %39 = icmp slt i32 %38, 0
  br i1 %39, label %40, label %75

40:                                               ; preds = %35
  %41 = load i64, ptr @H5E_FILE_g, align 8
  %42 = load i64, ptr @H5E_UNMOUNT_g, align 8
  %43 = call i32 (ptr, ptr, i32, i64, i64, ptr, ...) @H5E_printf_stack(ptr noundef nonnull @.str, ptr noundef nonnull @__func__.H5VL__native_group_specific, i32 noundef 275, i64 noundef %41, i64 noundef %42, ptr noundef nonnull @.str.12) #3
  br label %75

44:                                               ; preds = %4
  %45 = getelementptr inbounds i8, ptr %0, i64 8
  %46 = load ptr, ptr %45, align 8
  %47 = tail call zeroext i1 @H5F_has_feature(ptr noundef %46, i32 noundef 256) #3
  br i1 %47, label %48, label %52

48:                                               ; preds = %44
  %49 = load i64, ptr @H5E_SYM_g, align 8
  %50 = load i64, ptr @H5E_UNSUPPORTED_g, align 8
  %51 = tail call i32 (ptr, ptr, i32, i64, i64, ptr, ...) @H5E_printf_stack(ptr noundef nonnull @.str, ptr noundef nonnull @__func__.H5VL__native_group_specific, i32 noundef 285, i64 noundef %49, i64 noundef %50, ptr noundef nonnull @.str.13) #3
  br label %75

52:                                               ; preds = %44
  %53 = getelementptr inbounds i8, ptr %1, i64 8
  %54 = load i64, ptr %53, align 8
  %55 = tail call i32 @H5O_flush_common(ptr noundef nonnull %45, i64 noundef %54) #3
  %56 = icmp slt i32 %55, 0
  br i1 %56, label %57, label %75

57:                                               ; preds = %52
  %58 = load i64, ptr @H5E_SYM_g, align 8
  %59 = load i64, ptr @H5E_CANTFLUSH_g, align 8
  %60 = tail call i32 (ptr, ptr, i32, i64, i64, ptr, ...) @H5E_printf_stack(ptr noundef nonnull @.str, ptr noundef nonnull @__func__.H5VL__native_group_specific, i32 noundef 288, i64 noundef %58, i64 noundef %59, ptr noundef nonnull @.str.14) #3
  br label %75

61:                                               ; preds = %4
  %62 = getelementptr inbounds i8, ptr %0, i64 8
  %63 = getelementptr inbounds i8, ptr %1, i64 8
  %64 = load i64, ptr %63, align 8
  %65 = tail call i32 @H5O_refresh_metadata(ptr noundef nonnull %62, i64 noundef %64) #3
  %66 = icmp slt i32 %65, 0
  br i1 %66, label %67, label %75

67:                                               ; preds = %61
  %68 = load i64, ptr @H5E_SYM_g, align 8
  %69 = load i64, ptr @H5E_CANTLOAD_g, align 8
  %70 = tail call i32 (ptr, ptr, i32, i64, i64, ptr, ...) @H5E_printf_stack(ptr noundef nonnull @.str, ptr noundef nonnull @__func__.H5VL__native_group_specific, i32 noundef 296, i64 noundef %68, i64 noundef %69, ptr noundef nonnull @.str.15) #3
  br label %75

71:                                               ; preds = %4
  %72 = load i64, ptr @H5E_VOL_g, align 8
  %73 = load i64, ptr @H5E_UNSUPPORTED_g, align 8
  %74 = tail call i32 (ptr, ptr, i32, i64, i64, ptr, ...) @H5E_printf_stack(ptr noundef nonnull @.str, ptr noundef nonnull @__func__.H5VL__native_group_specific, i32 noundef 302, i64 noundef %72, i64 noundef %73, ptr noundef nonnull @.str.16) #3
  br label %75

75:                                               ; preds = %15, %35, %52, %61, %71, %67, %57, %48, %40, %31, %24, %11
  %.0 = phi i32 [ -1, %71 ], [ -1, %67 ], [ 0, %61 ], [ -1, %48 ], [ -1, %57 ], [ 0, %52 ], [ -1, %31 ], [ -1, %40 ], [ 0, %35 ], [ -1, %11 ], [ -1, %24 ], [ 0, %15 ]
  ret i32 %.0
}